; Function Attrs: mustprogress uwtable
define hidden void @_ZN4lean15hashmap_foreachEP11lean_objectRKSt8functionIFvS1_S1_EE(ptr noundef readonly captures(none) %0, ptr noundef nonnull align 8 dereferenceable(32) %1) local_unnamed_addr #0 {
  %3 = alloca ptr, align 8
  %4 = alloca ptr, align 8
  %5 = getelementptr inbounds nuw i8, ptr %0, i64 16
  %6 = load ptr, ptr %5, align 8, !tbaa !8
  %7 = getelementptr i8, ptr %6, i64 8
  %.val.i.i.i = load i64, ptr %7, align 8, !tbaa !9
  %.not.i.i = icmp eq i64 %.val.i.i.i, 0
  br i1 %.not.i.i, label %_ZN4lean18hashmap_visitor_fnclEP11lean_object.exit, label %.lr.ph.i.i

.lr.ph.i.i:                                       ; preds = %2
  %8 = getelementptr inbounds nuw i8, ptr %6, i64 24
  %9 = getelementptr inbounds nuw i8, ptr %1, i64 16
  %10 = getelementptr inbounds nuw i8, ptr %1, i64 24
  br label %11

11:                                               ; preds = %_ZN4lean18hashmap_visitor_fn16visit_assoc_listEP11lean_object.exit.i.i, %.lr.ph.i.i
  %.06.i.i = phi i64 [ 0, %.lr.ph.i.i ], [ %27, %_ZN4lean18hashmap_visitor_fn16visit_assoc_listEP11lean_object.exit.i.i ]
  %12 = getelementptr inbounds nuw [0 x ptr], ptr %8, i64 0, i64 %.06.i.i
  %13 = load ptr, ptr %12, align 8, !tbaa !8
  %14 = ptrtoint ptr %13 to i64
  %15 = and i64 %14, 1
  %.not5.i.i.i = icmp eq i64 %15, 0
  br i1 %.not5.i.i.i, label %.lr.ph.i.i.i, label %_ZN4lean18hashmap_visitor_fn16visit_assoc_listEP11lean_object.exit.i.i

.lr.ph.i.i.i:                                     ; preds = %11, %_ZNKSt8functionIFvP11lean_objectS1_EEclES1_S1_.exit.i.i.i
  %.06.i.i.i = phi ptr [ %24, %_ZNKSt8functionIFvP11lean_objectS1_EEclES1_S1_.exit.i.i.i ], [ %13, %11 ]
  %16 = getelementptr inbounds nuw i8, ptr %.06.i.i.i, i64 8
  %17 = load ptr, ptr %16, align 8, !tbaa !8
  %18 = getelementptr inbounds nuw i8, ptr %.06.i.i.i, i64 16
  %19 = load ptr, ptr %18, align 8, !tbaa !8
  call void @llvm.lifetime.start.p0(i64 8, ptr nonnull %3)
  call void @llvm.lifetime.start.p0(i64 8, ptr nonnull %4)
  store ptr %17, ptr %3, align 8, !tbaa !8
  store ptr %19, ptr %4, align 8, !tbaa !8
  %20 = load ptr, ptr %9, align 8, !tbaa !11
  %.not.i.i.i.i.i = icmp eq ptr %20, null
  br i1 %.not.i.i.i.i.i, label %21, label %_ZNKSt8functionIFvP11lean_objectS1_EEclES1_S1_.exit.i.i.i

21:                                               ; preds = %.lr.ph.i.i.i
  call void @_ZSt25__throw_bad_function_callv() #9
  unreachable

_ZNKSt8functionIFvP11lean_objectS1_EEclES1_S1_.exit.i.i.i: ; preds = %.lr.ph.i.i.i
  %22 = load ptr, ptr %10, align 8, !tbaa !13
  call void %22(ptr noundef nonnull align 8 dereferenceable(32) %1, ptr noundef nonnull align 8 dereferenceable(8) %3, ptr noundef nonnull align 8 dereferenceable(8) %4)
  call void @llvm.lifetime.end.p0(i64 8, ptr nonnull %3)
  call void @llvm.lifetime.end.p0(i64 8, ptr nonnull %4)
  %23 = getelementptr inbounds nuw i8, ptr %.06.i.i.i, i64 24
  %24 = load ptr, ptr %23, align 8, !tbaa !8
  %25 = ptrtoint ptr %24 to i64
  %26 = and i64 %25, 1
  %.not.i.i.i = icmp eq i64 %26, 0
  br i1 %.not.i.i.i, label %.lr.ph.i.i.i, label %_ZN4lean18hashmap_visitor_fn16visit_assoc_listEP11lean_object.exit.i.i, !llvm.loop !15

_ZN4lean18hashmap_visitor_fn16visit_assoc_listEP11lean_object.exit.i.i: ; preds = %_ZNKSt8functionIFvP11lean_objectS1_EEclES1_S1_.exit.i.i.i, %11
  %27 = add nuw i64 %.06.i.i, 1
  %exitcond.not.i.i = icmp eq i64 %27, %.val.i.i.i
  br i1 %exitcond.not.i.i, label %_ZN4lean18hashmap_visitor_fnclEP11lean_object.exit, label %11, !llvm.loop !17

_ZN4lean18hashmap_visitor_fnclEP11lean_object.exit: ; preds = %_ZN4lean18hashmap_visitor_fn16visit_assoc_listEP11lean_object.exit.i.i, %2
  ret void
}